; Function Attrs: mustprogress nounwind uwtable
define hidden void @_ZN14AsyncLogWriter10initializeEv() local_unnamed_addr #4 align 2 {
  %1 = load i8, ptr @_ZN16LogConfiguration11_async_modeE, align 1
  %2 = trunc i8 %1 to i1
  br i1 %2, label %3, label %17

3:                                                ; preds = %0
  %4 = tail call noundef ptr @_Z12AllocateHeapm8MEMFLAGSN17AllocFailStrategy13AllocFailEnumE(i64 noundef 1184, i8 noundef zeroext 2, i32 noundef 0) #16
  tail call void @_ZN14AsyncLogWriterC2Ev(ptr noundef nonnull align 8 dereferenceable(1184) %4)
  %5 = getelementptr inbounds i8, ptr %4, i64 1017
  %6 = load volatile i8, ptr %5, align 1
  %7 = trunc i8 %6 to i1
  br i1 %7, label %8, label %13

8:                                                ; preds = %3
  %9 = tail call ptr asm sideeffect "xchgq ($2), $0", "=r,0,r,~{memory},~{dirflag},~{fpsr},~{flags}"(ptr nonnull %4, ptr nonnull @_ZN14AsyncLogWriter9_instanceE) #16, !srcloc !17
  %.011 = load ptr, ptr @_ZN9LogTagSet5_listE, align 8
  %.not12 = icmp eq ptr %.011, null
  br i1 %.not12, label %._crit_edge, label %.lr.ph

.lr.ph:                                           ; preds = %8, %.lr.ph
  %.013 = phi ptr [ %.0, %.lr.ph ], [ %.011, %8 ]
  %10 = getelementptr inbounds i8, ptr %.013, i64 40
  tail call void @_ZNK13LogOutputList21wait_until_no_readersEv(ptr noundef nonnull align 8 dereferenceable(52) %10) #16
  %.0 = load ptr, ptr %.013, align 8
  %.not = icmp eq ptr %.0, null
  br i1 %.not, label %._crit_edge, label %.lr.ph, !llvm.loop !18

._crit_edge:                                      ; preds = %.lr.ph, %8
  tail call void @_ZN2os12start_threadEP6Thread(ptr noundef nonnull %4) #16
  %11 = load volatile ptr, ptr getelementptr inbounds (i8, ptr @_ZN16LogTagSetMappingILN6LogTag4typeE76ELS1_159ELS1_0ELS1_0ELS1_0ELS1_0EE7_tagsetE, i64 56), align 8
  %.not10 = icmp eq ptr %11, null
  br i1 %.not10, label %17, label %12

12:                                               ; preds = %._crit_edge
  tail call void (ptr, ...) @_ZN7LogImplILN6LogTag4typeE76ELS1_159ELS1_0ELS1_0ELS1_0ELS1_0EE5writeILN8LogLevel4typeE2EEEvPKcz(ptr noundef nonnull @.str.7)
  br label %17

13:                                               ; preds = %3
  %14 = load ptr, ptr %4, align 8
  %15 = getelementptr inbounds i8, ptr %14, i64 16
  %16 = load ptr, ptr %15, align 8
  tail call void %16(ptr noundef nonnull align 8 dereferenceable(1184) %4) #16
  br label %17

17:                                               ; preds = %13, %12, %._crit_edge, %0
  ret void
}